target datalayout = "e-m:e-p270:32:32-p271:32:32-p272:64:64-i64:64-i128:128-f80:128-n8:16:32:64-S128"
target triple = "x86_64-pc-linux-gnu"

%struct.active_request_slot = type { ptr, i32, i32, i64, ptr, ptr, ptr, ptr, ptr }

@curlm = internal global ptr null, align 8
@active_requests = dso_local global i32 0, align 4
@.str.35 = private unnamed_addr constant [33 x i8] c"curl_multi_add_handle failed: %s\00", align 1

; Function Attrs: nounwind uwtable
define dso_local i32 @start_active_slot(ptr noundef %0) #0 {
  %2 = alloca i32, align 4
  %3 = alloca ptr, align 8
  %4 = alloca i32, align 4
  %5 = alloca i32, align 4
  %6 = alloca i32, align 4
  store ptr %0, ptr %3, align 8, !tbaa !88
  call void @llvm.lifetime.start.p0(i64 4, ptr %4) #11
  %7 = load ptr, ptr @curlm, align 8, !tbaa !11
  %8 = load ptr, ptr %3, align 8, !tbaa !88
  %9 = getelementptr inbounds nuw %struct.active_request_slot, ptr %8, i32 0, i32 0
  %10 = load ptr, ptr %9, align 8, !tbaa !94
  %11 = call i32 @curl_multi_add_handle(ptr noundef %7, ptr noundef %10)
  store i32 %11, ptr %4, align 4, !tbaa !19
  call void @llvm.lifetime.start.p0(i64 4, ptr %5) #11
  %12 = load i32, ptr %4, align 4, !tbaa !19
  %13 = icmp ne i32 %12, 0
  br i1 %13, label %14, label %24

14:                                               ; preds = %1
  %15 = load i32, ptr %4, align 4, !tbaa !19
  %16 = icmp ne i32 %15, -1
  br i1 %16, label %17, label %24

17:                                               ; preds = %14
  %18 = load i32, ptr %4, align 4, !tbaa !19
  %19 = call ptr @curl_multi_strerror(i32 noundef %18)
  call void (ptr, ...) @warning(ptr noundef @.str.35, ptr noundef %19)
  %20 = load i32, ptr @active_requests, align 4, !tbaa !19
  %21 = add nsw i32 %20, -1
  store i32 %21, ptr @active_requests, align 4, !tbaa !19
  %22 = load ptr, ptr %3, align 8, !tbaa !88
  %23 = getelementptr inbounds nuw %struct.active_request_slot, ptr %22, i32 0, i32 1
  store i32 0, ptr %23, align 8, !tbaa !97
  store i32 0, ptr %2, align 4
  store i32 1, ptr %6, align 4
  br label %27

24:                                               ; preds = %14, %1
  %25 = load ptr, ptr @curlm, align 8, !tbaa !11
  %26 = call i32 @curl_multi_perform(ptr noundef %25, ptr noundef %5)
  store i32 1, ptr %2, align 4
  store i32 1, ptr %6, align 4
  br label %27

27:                                               ; preds = %24, %17
  call void @llvm.lifetime.end.p0(i64 4, ptr %5) #11
  call void @llvm.lifetime.end.p0(i64 4, ptr %4) #11
  %28 = load i32, ptr %2, align 4
  ret i32 %28
}