; Function Attrs: nounwind uwtable
define dso_local range(i32 0, 2) i32 @start_active_slot(ptr noundef captures(none) %0) local_unnamed_addr #3 {
  %2 = alloca i32, align 4
  %3 = load ptr, ptr @curlm, align 8, !tbaa !62
  %4 = load ptr, ptr %0, align 8, !tbaa !87
  %5 = tail call i32 @curl_multi_add_handle(ptr noundef %3, ptr noundef %4) #22
  call void @llvm.lifetime.start.p0(i64 4, ptr nonnull %2) #22
  %6 = add i32 %5, -1
  %or.cond = icmp ult i32 %6, -2
  br i1 %or.cond, label %7, label %12

7:                                                ; preds = %1
  %8 = tail call ptr @curl_multi_strerror(i32 noundef %5) #22
  tail call void (ptr, ...) @warning(ptr noundef nonnull @.str.35, ptr noundef %8) #22
  %9 = load i32, ptr @active_requests, align 4, !tbaa !38
  %10 = add nsw i32 %9, -1
  store i32 %10, ptr @active_requests, align 4, !tbaa !38
  %11 = getelementptr inbounds nuw i8, ptr %0, i64 8
  store i32 0, ptr %11, align 8, !tbaa !90
  br label %15

12:                                               ; preds = %1
  %13 = load ptr, ptr @curlm, align 8, !tbaa !62
  %14 = call i32 @curl_multi_perform(ptr noundef %13, ptr noundef nonnull %2) #22
  br label %15

15:                                               ; preds = %12, %7
  %.0 = phi i32 [ 0, %7 ], [ 1, %12 ]
  call void @llvm.lifetime.end.p0(i64 4, ptr nonnull %2) #22
  ret i32 %.0
}